target datalayout = "e-m:e-p270:32:32-p271:32:32-p272:64:64-i64:64-i128:128-f80:128-n8:16:32:64-S128"
target triple = "x86_64-pc-linux-gnu"

%"struct.cv::utils::logging::LogTag" = type <{ ptr, i32, [4 x i8] }>

@_ZZN2cv5utils7logging8internalL19getLogLevelVariableEvE17refGlobalLogLevel = internal global ptr null, align 8
@_ZGVZN2cv5utils7logging8internalL19getLogLevelVariableEvE17refGlobalLogLevel = internal global i64 0, align 8

; Function Attrs: mustprogress uwtable
define internal noundef nonnull align 4 dereferenceable(4) ptr @_ZN2cv5utils7logging8internalL19getLogLevelVariableEv() #4 personality ptr @__gxx_personality_v0 {
  %1 = alloca ptr, align 8
  %2 = alloca i32, align 4
  %3 = load atomic i8, ptr @_ZGVZN2cv5utils7logging8internalL19getLogLevelVariableEvE17refGlobalLogLevel acquire, align 8
  %4 = icmp eq i8 %3, 0
  br i1 %4, label %5, label %12, !prof !4

5:                                                ; preds = %0
  %6 = call i32 @__cxa_guard_acquire(ptr @_ZGVZN2cv5utils7logging8internalL19getLogLevelVariableEvE17refGlobalLogLevel) #3
  %7 = icmp ne i32 %6, 0
  br i1 %7, label %8, label %12

8:                                                ; preds = %5
  %9 = invoke noundef ptr @_ZN2cv5utils7logging8internal15getGlobalLogTagEv()
          to label %10 unwind label %14

10:                                               ; preds = %8
  %11 = getelementptr inbounds %"struct.cv::utils::logging::LogTag", ptr %9, i32 0, i32 1
  store ptr %11, ptr @_ZZN2cv5utils7logging8internalL19getLogLevelVariableEvE17refGlobalLogLevel, align 8
  call void @__cxa_guard_release(ptr @_ZGVZN2cv5utils7logging8internalL19getLogLevelVariableEvE17refGlobalLogLevel) #3
  br label %12

12:                                               ; preds = %10, %5, %0
  %13 = load ptr, ptr @_ZZN2cv5utils7logging8internalL19getLogLevelVariableEvE17refGlobalLogLevel, align 8
  ret ptr %13

14:                                               ; preds = %8
  %15 = landingpad { ptr, i32 }
          cleanup
  %16 = extractvalue { ptr, i32 } %15, 0
  store ptr %16, ptr %1, align 8
  %17 = extractvalue { ptr, i32 } %15, 1
  store i32 %17, ptr %2, align 4
  call void @__cxa_guard_abort(ptr @_ZGVZN2cv5utils7logging8internalL19getLogLevelVariableEvE17refGlobalLogLevel) #3
  br label %18

18:                                               ; preds = %14
  %19 = load ptr, ptr %1, align 8
  %20 = load i32, ptr %2, align 4
  %21 = insertvalue { ptr, i32 } poison, ptr %19, 0
  %22 = insertvalue { ptr, i32 } %21, i32 %20, 1
  resume { ptr, i32 } %22
}

; Function Attrs: mustprogress uwtable
define noundef i32 @_ZN2cv5utils7logging11setLogLevelENS1_8LogLevelE(i32 noundef %0) #4 {
  %2 = alloca i32, align 4
  %3 = alloca ptr, align 8
  %4 = alloca i32, align 4
  store i32 %0, ptr %2, align 4
  %5 = call noundef nonnull align 4 dereferenceable(4) ptr @_ZN2cv5utils7logging8internalL19getLogLevelVariableEv()
  store ptr %5, ptr %3, align 8
  %6 = load ptr, ptr %3, align 8
  %7 = load i32, ptr %6, align 4
  store i32 %7, ptr %4, align 4
  %8 = load i32, ptr %2, align 4
  %9 = load ptr, ptr %3, align 8
  store i32 %8, ptr %9, align 4
  %10 = load i32, ptr %4, align 4
  ret i32 %10
}