; Function Attrs: mustprogress uwtable
define noundef i32 @_ZN2cv5utils7logging11setLogLevelENS1_8LogLevelE(i32 noundef %0) local_unnamed_addr #3 personality ptr @__gxx_personality_v0 {
  %2 = load atomic i8, ptr @_ZGVZN2cv5utils7logging8internalL19getLogLevelVariableEvE17refGlobalLogLevel acquire, align 8
  %3 = icmp eq i8 %2, 0
  br i1 %3, label %4, label %_ZN2cv5utils7logging8internalL19getLogLevelVariableEv.exit, !prof !4

4:                                                ; preds = %1
  %5 = tail call i32 @__cxa_guard_acquire(ptr nonnull @_ZGVZN2cv5utils7logging8internalL19getLogLevelVariableEvE17refGlobalLogLevel) #8
  %.not.i = icmp eq i32 %5, 0
  br i1 %.not.i, label %_ZN2cv5utils7logging8internalL19getLogLevelVariableEv.exit, label %6

6:                                                ; preds = %4
  %7 = invoke noundef ptr @_ZN2cv5utils7logging8internal15getGlobalLogTagEv()
          to label %8 unwind label %10

8:                                                ; preds = %6
  %9 = getelementptr inbounds i8, ptr %7, i64 8
  store ptr %9, ptr @_ZZN2cv5utils7logging8internalL19getLogLevelVariableEvE17refGlobalLogLevel, align 8
  tail call void @__cxa_guard_release(ptr nonnull @_ZGVZN2cv5utils7logging8internalL19getLogLevelVariableEvE17refGlobalLogLevel) #8
  br label %_ZN2cv5utils7logging8internalL19getLogLevelVariableEv.exit

10:                                               ; preds = %6
  %11 = landingpad { ptr, i32 }
          cleanup
  tail call void @__cxa_guard_abort(ptr nonnull @_ZGVZN2cv5utils7logging8internalL19getLogLevelVariableEvE17refGlobalLogLevel) #8
  resume { ptr, i32 } %11

_ZN2cv5utils7logging8internalL19getLogLevelVariableEv.exit: ; preds = %1, %4, %8
  %12 = load ptr, ptr @_ZZN2cv5utils7logging8internalL19getLogLevelVariableEvE17refGlobalLogLevel, align 8
  %13 = load i32, ptr %12, align 4
  store i32 %0, ptr %12, align 4
  ret i32 %13
}